; Function Attrs: mustprogress uwtable
define hidden noundef i32 @_ZN8intblast6solver6mk_varEPN3euf5enodeE(ptr noundef nonnull align 8 dereferenceable(420) %0, ptr noundef %1) unnamed_addr #3 align 2 {
  %3 = tail call noundef i32 @_ZN3euf13th_euf_solver6mk_varEPNS_5enodeE(ptr noundef nonnull align 8 dereferenceable(108) %0, ptr noundef %1)
  %4 = getelementptr inbounds nuw i8, ptr %0, i64 112
  %5 = load ptr, ptr %4, align 8, !tbaa !440
  %6 = getelementptr inbounds nuw i8, ptr %5, i64 1632
  %7 = getelementptr inbounds nuw i8, ptr %0, i64 12
  %8 = load i32, ptr %7, align 4, !tbaa !441
  tail call void @_ZN3euf6egraph10add_th_varEPNS_5enodeEii(ptr noundef nonnull align 8 dereferenceable(536) %6, ptr noundef %1, i32 noundef %3, i32 noundef %8)
  ret i32 %3
}